; Function Attrs: nounwind uwtable
define internal fastcc ptr @set_signal(i32 noundef %0, ptr noundef %1, i1 noundef zeroext %2) unnamed_addr #0 {
  %4 = alloca %struct.__sigset_t, align 8
  %5 = alloca %struct.__sigset_t, align 8
  %6 = tail call i32 @pthread_mutex_lock(ptr noundef nonnull @mutex) #9
  %.b12.i = load i1, ptr @jvm_signal_installing, align 1
  br i1 %.b12.i, label %7, label %signal_lock.exit

7:                                                ; preds = %3
  %8 = load i64, ptr @tid, align 8
  %9 = tail call i64 @pthread_self() #8
  %10 = tail call i32 @pthread_equal(i64 noundef %8, i64 noundef %9) #8
  %11 = icmp eq i32 %10, 0
  br i1 %11, label %.preheader.i, label %signal_lock.exit

.preheader.i:                                     ; preds = %7, %.preheader.i
  %12 = tail call i32 @pthread_cond_wait(ptr noundef nonnull @cond, ptr noundef nonnull @mutex) #9
  %.b3.i = load i1, ptr @jvm_signal_installing, align 1
  br i1 %.b3.i, label %.preheader.i, label %signal_lock.exit, !llvm.loop !6

signal_lock.exit:                                 ; preds = %.preheader.i, %3, %7
  %13 = tail call i32 @sigismember(ptr noundef nonnull @jvmsigs, i32 noundef %0) #9
  %.b23 = load i1, ptr @jvm_signal_installed, align 1
  %.not = icmp ne i32 %13, 0
  %or.cond.not = select i1 %.b23, i1 %.not, i1 false
  br i1 %or.cond.not, label %14, label %25

14:                                               ; preds = %signal_lock.exit
  %15 = zext nneg i32 %0 to i64
  br i1 %2, label %16, label %._crit_edge

16:                                               ; preds = %14
  %17 = getelementptr inbounds [65 x %struct.sigaction], ptr @sact, i64 0, i64 %15, i32 1
  %18 = tail call i32 @sigismember(ptr noundef nonnull %17, i32 noundef %0) #9
  br label %._crit_edge

._crit_edge:                                      ; preds = %14, %16
  %19 = getelementptr inbounds [65 x %struct.sigaction], ptr @sact, i64 0, i64 %15
  %20 = load ptr, ptr %19, align 8
  call void @llvm.lifetime.start.p0(i64 128, ptr nonnull %5)
  store ptr %1, ptr %19, align 8
  %21 = call i32 @sigemptyset(ptr noundef nonnull %5) #9
  %22 = getelementptr inbounds i8, ptr %19, i64 8
  call void @llvm.memcpy.p0.p0.i64(ptr noundef nonnull align 8 dereferenceable(128) %22, ptr noundef nonnull align 8 dereferenceable(128) %5, i64 128, i1 false)
  %23 = getelementptr inbounds i8, ptr %19, i64 136
  store i32 0, ptr %23, align 8
  call void @llvm.lifetime.end.p0(i64 128, ptr nonnull %5)
  %24 = call i32 @pthread_mutex_unlock(ptr noundef nonnull @mutex) #9
  br label %52

25:                                               ; preds = %signal_lock.exit
  %.b2224 = load i1, ptr @jvm_signal_installing, align 1
  %26 = load ptr, ptr @os_signal, align 8
  %27 = icmp eq ptr %26, null
  br i1 %.b2224, label %28, label %43

28:                                               ; preds = %25
  br i1 %27, label %29, label %call_os_signal.exit

29:                                               ; preds = %28
  %puts.i = tail call i32 @puts(ptr nonnull dereferenceable(1) @str)
  %.str.2..str.1.i = select i1 %2, ptr @.str.2, ptr @.str.1
  %30 = tail call ptr @dlsym(ptr noundef nonnull inttoptr (i64 -1 to ptr), ptr noundef nonnull %.str.2..str.1.i) #9
  store ptr %30, ptr @os_signal, align 8
  %31 = icmp eq ptr %30, null
  br i1 %31, label %32, label %call_os_signal.exit

32:                                               ; preds = %29
  %33 = tail call ptr @dlerror() #9
  %puts3.i = tail call i32 @puts(ptr nonnull dereferenceable(1) %33)
  tail call void @exit(i32 noundef 0) #10
  unreachable

call_os_signal.exit:                              ; preds = %28, %29
  %34 = phi ptr [ %30, %29 ], [ %26, %28 ]
  %35 = tail call ptr %34(i32 noundef %0, ptr noundef %1) #9
  call void @llvm.lifetime.start.p0(i64 128, ptr nonnull %4)
  %36 = zext nneg i32 %0 to i64
  %37 = getelementptr inbounds [65 x %struct.sigaction], ptr @sact, i64 0, i64 %36
  store ptr %35, ptr %37, align 8
  %38 = call i32 @sigemptyset(ptr noundef nonnull %4) #9
  %39 = getelementptr inbounds i8, ptr %37, i64 8
  call void @llvm.memcpy.p0.p0.i64(ptr noundef nonnull align 8 dereferenceable(128) %39, ptr noundef nonnull align 8 dereferenceable(128) %4, i64 128, i1 false)
  %40 = getelementptr inbounds i8, ptr %37, i64 136
  store i32 0, ptr %40, align 8
  call void @llvm.lifetime.end.p0(i64 128, ptr nonnull %4)
  %41 = call i32 @sigaddset(ptr noundef nonnull @jvmsigs, i32 noundef %0) #9
  %42 = call i32 @pthread_mutex_unlock(ptr noundef nonnull @mutex) #9
  br label %52

43:                                               ; preds = %25
  br i1 %27, label %44, label %call_os_signal.exit28

44:                                               ; preds = %43
  %puts.i25 = tail call i32 @puts(ptr nonnull dereferenceable(1) @str)
  %.str.2..str.1.i26 = select i1 %2, ptr @.str.2, ptr @.str.1
  %45 = tail call ptr @dlsym(ptr noundef nonnull inttoptr (i64 -1 to ptr), ptr noundef nonnull %.str.2..str.1.i26) #9
  store ptr %45, ptr @os_signal, align 8
  %46 = icmp eq ptr %45, null
  br i1 %46, label %47, label %call_os_signal.exit28

47:                                               ; preds = %44
  %48 = tail call ptr @dlerror() #9
  %puts3.i27 = tail call i32 @puts(ptr nonnull dereferenceable(1) %48)
  tail call void @exit(i32 noundef 0) #10
  unreachable

call_os_signal.exit28:                            ; preds = %43, %44
  %49 = phi ptr [ %45, %44 ], [ %26, %43 ]
  %50 = tail call ptr %49(i32 noundef %0, ptr noundef %1) #9
  %51 = tail call i32 @pthread_mutex_unlock(ptr noundef nonnull @mutex) #9
  br label %52

52:                                               ; preds = %call_os_signal.exit28, %call_os_signal.exit, %._crit_edge
  %.0 = phi ptr [ %20, %._crit_edge ], [ %35, %call_os_signal.exit ], [ %50, %call_os_signal.exit28 ]
  ret ptr %.0
}